target datalayout = "e-m:e-p270:32:32-p271:32:32-p272:64:64-i64:64-i128:128-f80:128-n8:16:32:64-S128"
target triple = "x86_64-pc-linux-gnu"

%"class.icu_77::number::impl::StringProp" = type { ptr, i16, i32 }

; Function Attrs: mustprogress nounwind uwtable
define void @_ZN6icu_776number4impl10StringPropC2EOS2_(ptr noundef nonnull align 8 dereferenceable(16) %0, ptr noundef nonnull align 8 dereferenceable(16) %1) unnamed_addr #0 align 2 {
  %3 = alloca ptr, align 8
  %4 = alloca ptr, align 8
  store ptr %0, ptr %3, align 8, !tbaa !23
  store ptr %1, ptr %4, align 8, !tbaa !23
  %5 = load ptr, ptr %3, align 8
  %6 = getelementptr inbounds nuw %"class.icu_77::number::impl::StringProp", ptr %5, i32 0, i32 0
  %7 = load ptr, ptr %4, align 8, !tbaa !23
  %8 = getelementptr inbounds nuw %"class.icu_77::number::impl::StringProp", ptr %7, i32 0, i32 0
  %9 = load ptr, ptr %8, align 8, !tbaa !25
  store ptr %9, ptr %6, align 8, !tbaa !25
  %10 = getelementptr inbounds nuw %"class.icu_77::number::impl::StringProp", ptr %5, i32 0, i32 1
  %11 = load ptr, ptr %4, align 8, !tbaa !23
  %12 = getelementptr inbounds nuw %"class.icu_77::number::impl::StringProp", ptr %11, i32 0, i32 1
  %13 = load i16, ptr %12, align 8, !tbaa !28
  store i16 %13, ptr %10, align 8, !tbaa !28
  %14 = getelementptr inbounds nuw %"class.icu_77::number::impl::StringProp", ptr %5, i32 0, i32 2
  %15 = load ptr, ptr %4, align 8, !tbaa !23
  %16 = getelementptr inbounds nuw %"class.icu_77::number::impl::StringProp", ptr %15, i32 0, i32 2
  %17 = load i32, ptr %16, align 4, !tbaa !29
  store i32 %17, ptr %14, align 4, !tbaa !29
  %18 = load ptr, ptr %4, align 8, !tbaa !23
  %19 = getelementptr inbounds nuw %"class.icu_77::number::impl::StringProp", ptr %18, i32 0, i32 0
  store ptr null, ptr %19, align 8, !tbaa !25
  ret void
}