; Function Attrs: mustprogress nofree norecurse nosync nounwind willreturn memory(argmem: readwrite) uwtable
define void @_ZN6icu_776number4impl10StringPropC2EOS2_(ptr noundef nonnull writeonly align 8 captures(none) dereferenceable(16) initializes((0, 10), (12, 16)) %0, ptr noundef nonnull align 8 captures(none) dereferenceable(16) %1) unnamed_addr #11 align 2 {
  %3 = load ptr, ptr %1, align 8, !tbaa !15
  store ptr %3, ptr %0, align 8, !tbaa !15
  %4 = getelementptr inbounds nuw i8, ptr %0, i64 8
  %5 = getelementptr inbounds nuw i8, ptr %1, i64 8
  %6 = load i16, ptr %5, align 8, !tbaa !18
  store i16 %6, ptr %4, align 8, !tbaa !18
  %7 = getelementptr inbounds nuw i8, ptr %0, i64 12
  %8 = getelementptr inbounds nuw i8, ptr %1, i64 12
  %9 = load i32, ptr %8, align 4, !tbaa !19
  store i32 %9, ptr %7, align 4, !tbaa !19
  store ptr null, ptr %1, align 8, !tbaa !15
  ret void
}